target datalayout = "e-m:e-p270:32:32-p271:32:32-p272:64:64-i64:64-i128:128-f80:128-n8:16:32:64-S128"
target triple = "x86_64-pc-linux-gnu"

%struct._DlsMat = type { i32, i64, i64, i64, i64, i64, i64, ptr, i64, ptr }

; Function Attrs: nounwind uwtable
define ptr @NewDenseMat(i64 noundef %0, i64 noundef %1) #0 {
  %3 = alloca ptr, align 8
  %4 = alloca i64, align 8
  %5 = alloca i64, align 8
  %6 = alloca ptr, align 8
  %7 = alloca i64, align 8
  %8 = alloca i32, align 4
  store i64 %0, ptr %4, align 8, !tbaa !3
  store i64 %1, ptr %5, align 8, !tbaa !3
  call void @llvm.lifetime.start.p0(i64 8, ptr %6) #5
  call void @llvm.lifetime.start.p0(i64 8, ptr %7) #5
  %9 = load i64, ptr %4, align 8, !tbaa !3
  %10 = icmp sle i64 %9, 0
  br i1 %10, label %14, label %11

11:                                               ; preds = %2
  %12 = load i64, ptr %5, align 8, !tbaa !3
  %13 = icmp sle i64 %12, 0
  br i1 %13, label %14, label %15

14:                                               ; preds = %11, %2
  store ptr null, ptr %3, align 8
  store i32 1, ptr %8, align 4
  br label %90

15:                                               ; preds = %11
  store ptr null, ptr %6, align 8, !tbaa !7
  %16 = call noalias ptr @malloc(i64 noundef 80) #6
  store ptr %16, ptr %6, align 8, !tbaa !7
  %17 = load ptr, ptr %6, align 8, !tbaa !7
  %18 = icmp eq ptr %17, null
  br i1 %18, label %19, label %20

19:                                               ; preds = %15
  store ptr null, ptr %3, align 8
  store i32 1, ptr %8, align 4
  br label %90

20:                                               ; preds = %15
  %21 = load i64, ptr %4, align 8, !tbaa !3
  %22 = load i64, ptr %5, align 8, !tbaa !3
  %23 = mul nsw i64 %21, %22
  %24 = mul i64 %23, 8
  %25 = call noalias ptr @malloc(i64 noundef %24) #6
  %26 = load ptr, ptr %6, align 8, !tbaa !7
  %27 = getelementptr inbounds nuw %struct._DlsMat, ptr %26, i32 0, i32 7
  store ptr %25, ptr %27, align 8, !tbaa !10
  %28 = load ptr, ptr %6, align 8, !tbaa !7
  %29 = getelementptr inbounds nuw %struct._DlsMat, ptr %28, i32 0, i32 7
  %30 = load ptr, ptr %29, align 8, !tbaa !10
  %31 = icmp eq ptr %30, null
  br i1 %31, label %32, label %34

32:                                               ; preds = %20
  %33 = load ptr, ptr %6, align 8, !tbaa !7
  call void @free(ptr noundef %33) #5
  store ptr null, ptr %6, align 8, !tbaa !7
  store ptr null, ptr %3, align 8
  store i32 1, ptr %8, align 4
  br label %90

34:                                               ; preds = %20
  %35 = load i64, ptr %5, align 8, !tbaa !3
  %36 = mul i64 %35, 8
  %37 = call noalias ptr @malloc(i64 noundef %36) #6
  %38 = load ptr, ptr %6, align 8, !tbaa !7
  %39 = getelementptr inbounds nuw %struct._DlsMat, ptr %38, i32 0, i32 9
  store ptr %37, ptr %39, align 8, !tbaa !15
  %40 = load ptr, ptr %6, align 8, !tbaa !7
  %41 = getelementptr inbounds nuw %struct._DlsMat, ptr %40, i32 0, i32 9
  %42 = load ptr, ptr %41, align 8, !tbaa !15
  %43 = icmp eq ptr %42, null
  br i1 %43, label %44, label %51

44:                                               ; preds = %34
  %45 = load ptr, ptr %6, align 8, !tbaa !7
  %46 = getelementptr inbounds nuw %struct._DlsMat, ptr %45, i32 0, i32 7
  %47 = load ptr, ptr %46, align 8, !tbaa !10
  call void @free(ptr noundef %47) #5
  %48 = load ptr, ptr %6, align 8, !tbaa !7
  %49 = getelementptr inbounds nuw %struct._DlsMat, ptr %48, i32 0, i32 7
  store ptr null, ptr %49, align 8, !tbaa !10
  %50 = load ptr, ptr %6, align 8, !tbaa !7
  call void @free(ptr noundef %50) #5
  store ptr null, ptr %6, align 8, !tbaa !7
  store ptr null, ptr %3, align 8
  store i32 1, ptr %8, align 4
  br label %90

51:                                               ; preds = %34
  store i64 0, ptr %7, align 8, !tbaa !3
  br label %52

52:                                               ; preds = %69, %51
  %53 = load i64, ptr %7, align 8, !tbaa !3
  %54 = load i64, ptr %5, align 8, !tbaa !3
  %55 = icmp slt i64 %53, %54
  br i1 %55, label %56, label %72

56:                                               ; preds = %52
  %57 = load ptr, ptr %6, align 8, !tbaa !7
  %58 = getelementptr inbounds nuw %struct._DlsMat, ptr %57, i32 0, i32 7
  %59 = load ptr, ptr %58, align 8, !tbaa !10
  %60 = load i64, ptr %7, align 8, !tbaa !3
  %61 = load i64, ptr %4, align 8, !tbaa !3
  %62 = mul nsw i64 %60, %61
  %63 = getelementptr inbounds double, ptr %59, i64 %62
  %64 = load ptr, ptr %6, align 8, !tbaa !7
  %65 = getelementptr inbounds nuw %struct._DlsMat, ptr %64, i32 0, i32 9
  %66 = load ptr, ptr %65, align 8, !tbaa !15
  %67 = load i64, ptr %7, align 8, !tbaa !3
  %68 = getelementptr inbounds ptr, ptr %66, i64 %67
  store ptr %63, ptr %68, align 8, !tbaa !16
  br label %69

69:                                               ; preds = %56
  %70 = load i64, ptr %7, align 8, !tbaa !3
  %71 = add nsw i64 %70, 1
  store i64 %71, ptr %7, align 8, !tbaa !3
  br label %52, !llvm.loop !17

72:                                               ; preds = %52
  %73 = load i64, ptr %4, align 8, !tbaa !3
  %74 = load ptr, ptr %6, align 8, !tbaa !7
  %75 = getelementptr inbounds nuw %struct._DlsMat, ptr %74, i32 0, i32 1
  store i64 %73, ptr %75, align 8, !tbaa !19
  %76 = load i64, ptr %5, align 8, !tbaa !3
  %77 = load ptr, ptr %6, align 8, !tbaa !7
  %78 = getelementptr inbounds nuw %struct._DlsMat, ptr %77, i32 0, i32 2
  store i64 %76, ptr %78, align 8, !tbaa !20
  %79 = load i64, ptr %4, align 8, !tbaa !3
  %80 = load ptr, ptr %6, align 8, !tbaa !7
  %81 = getelementptr inbounds nuw %struct._DlsMat, ptr %80, i32 0, i32 3
  store i64 %79, ptr %81, align 8, !tbaa !21
  %82 = load i64, ptr %4, align 8, !tbaa !3
  %83 = load i64, ptr %5, align 8, !tbaa !3
  %84 = mul nsw i64 %82, %83
  %85 = load ptr, ptr %6, align 8, !tbaa !7
  %86 = getelementptr inbounds nuw %struct._DlsMat, ptr %85, i32 0, i32 8
  store i64 %84, ptr %86, align 8, !tbaa !22
  %87 = load ptr, ptr %6, align 8, !tbaa !7
  %88 = getelementptr inbounds nuw %struct._DlsMat, ptr %87, i32 0, i32 0
  store i32 1, ptr %88, align 8, !tbaa !23
  %89 = load ptr, ptr %6, align 8, !tbaa !7
  store ptr %89, ptr %3, align 8
  store i32 1, ptr %8, align 4
  br label %90

90:                                               ; preds = %72, %44, %32, %19, %14
  call void @llvm.lifetime.end.p0(i64 8, ptr %7) #5
  call void @llvm.lifetime.end.p0(i64 8, ptr %6) #5
  %91 = load ptr, ptr %3, align 8
  ret ptr %91
}