; Function Attrs: nounwind memory(readwrite, argmem: none) uwtable
define noalias noundef ptr @NewDenseMat(i64 noundef %0, i64 noundef %1) local_unnamed_addr #0 {
  %3 = icmp slt i64 %0, 1
  %4 = icmp slt i64 %1, 1
  %or.cond = or i1 %3, %4
  br i1 %or.cond, label %29, label %5

5:                                                ; preds = %2
  %6 = tail call noalias dereferenceable_or_null(80) ptr @malloc(i64 noundef 80) #12
  %7 = icmp eq ptr %6, null
  br i1 %7, label %29, label %8

8:                                                ; preds = %5
  %9 = mul nuw nsw i64 %1, %0
  %10 = shl i64 %9, 3
  %11 = tail call noalias ptr @malloc(i64 noundef %10) #12
  %12 = getelementptr inbounds nuw i8, ptr %6, i64 56
  store ptr %11, ptr %12, align 8, !tbaa !3
  %13 = icmp eq ptr %11, null
  br i1 %13, label %14, label %15

14:                                               ; preds = %8
  tail call void @free(ptr noundef nonnull %6) #13
  br label %29

15:                                               ; preds = %8
  %16 = shl i64 %1, 3
  %17 = tail call noalias ptr @malloc(i64 noundef %16) #12
  %18 = getelementptr inbounds nuw i8, ptr %6, i64 72
  store ptr %17, ptr %18, align 8, !tbaa !12
  %19 = icmp eq ptr %17, null
  br i1 %19, label %20, label %.lr.ph

20:                                               ; preds = %15
  tail call void @free(ptr noundef nonnull %11) #13
  tail call void @free(ptr noundef nonnull %6) #13
  br label %29

.lr.ph:                                           ; preds = %15, %.lr.ph
  %.038 = phi i64 [ %24, %.lr.ph ], [ 0, %15 ]
  %21 = mul nuw nsw i64 %.038, %0
  %22 = getelementptr inbounds nuw double, ptr %11, i64 %21
  %23 = getelementptr inbounds nuw ptr, ptr %17, i64 %.038
  store ptr %22, ptr %23, align 8, !tbaa !13
  %24 = add nuw nsw i64 %.038, 1
  %exitcond.not = icmp eq i64 %24, %1
  br i1 %exitcond.not, label %._crit_edge, label %.lr.ph, !llvm.loop !14

._crit_edge:                                      ; preds = %.lr.ph
  %25 = getelementptr inbounds nuw i8, ptr %6, i64 8
  store i64 %0, ptr %25, align 8, !tbaa !16
  %26 = getelementptr inbounds nuw i8, ptr %6, i64 16
  store i64 %1, ptr %26, align 8, !tbaa !17
  %27 = getelementptr inbounds nuw i8, ptr %6, i64 24
  store i64 %0, ptr %27, align 8, !tbaa !18
  %28 = getelementptr inbounds nuw i8, ptr %6, i64 64
  store i64 %9, ptr %28, align 8, !tbaa !19
  store i32 1, ptr %6, align 8, !tbaa !20
  br label %29

29:                                               ; preds = %5, %2, %._crit_edge, %20, %14
  %.034 = phi ptr [ null, %14 ], [ null, %20 ], [ %6, %._crit_edge ], [ null, %2 ], [ null, %5 ]
  ret ptr %.034
}